target datalayout = "e-m:e-p270:32:32-p271:32:32-p272:64:64-i64:64-i128:128-f80:128-n8:16:32:64-S128"
target triple = "x86_64-pc-linux-gnu"

%struct.hb_shape_plan_key_t = type { %struct.hb_segment_properties_t, ptr, i32, %struct.hb_ot_shape_plan_key_t, ptr, ptr }
%struct.hb_segment_properties_t = type { i32, i32, ptr, ptr, ptr }
%struct.hb_ot_shape_plan_key_t = type { [2 x i32] }
%struct.hb_feature_t = type { i32, i32, i32, i32 }

; Function Attrs: mustprogress nounwind uwtable
define internal noundef i32 @_ZL9hb_memcmpPKvS0_j(ptr noundef %0, ptr noundef %1, i32 noundef %2) #3 {
  %4 = alloca i32, align 4
  %5 = alloca ptr, align 8
  %6 = alloca ptr, align 8
  %7 = alloca i32, align 4
  store ptr %0, ptr %5, align 8
  store ptr %1, ptr %6, align 8
  store i32 %2, ptr %7, align 4
  %8 = load i32, ptr %7, align 4
  %9 = icmp ne i32 %8, 0
  br i1 %9, label %11, label %10

10:                                               ; preds = %3
  store i32 0, ptr %4, align 4
  br label %17

11:                                               ; preds = %3
  %12 = load ptr, ptr %5, align 8
  %13 = load ptr, ptr %6, align 8
  %14 = load i32, ptr %7, align 4
  %15 = zext i32 %14 to i64
  %16 = call i32 @memcmp(ptr noundef %12, ptr noundef %13, i64 noundef %15) #12
  store i32 %16, ptr %4, align 4
  br label %17

17:                                               ; preds = %11, %10
  %18 = load i32, ptr %4, align 4
  ret i32 %18
}

; Function Attrs: mustprogress uwtable
define linkonce_odr hidden noundef zeroext i1 @_ZN22hb_ot_shape_plan_key_t5equalEPKS_(ptr noundef nonnull align 4 dereferenceable(8) %0, ptr noundef %1) #0 comdat align 2 {
  %3 = alloca ptr, align 8
  %4 = alloca ptr, align 8
  store ptr %0, ptr %3, align 8
  store ptr %1, ptr %4, align 8
  %5 = load ptr, ptr %3, align 8
  %6 = load ptr, ptr %4, align 8
  %7 = call noundef i32 @_ZL9hb_memcmpPKvS0_j(ptr noundef %5, ptr noundef %6, i32 noundef 8)
  %8 = icmp eq i32 0, %7
  ret i1 %8
}

; Function Attrs: mustprogress nounwind uwtable
define hidden noundef zeroext i1 @_ZN19hb_shape_plan_key_t19user_features_matchEPKS_(ptr noundef nonnull align 8 dereferenceable(72) %0, ptr noundef %1) #3 align 2 {
  %3 = alloca i1, align 1
  %4 = alloca ptr, align 8
  %5 = alloca ptr, align 8
  %6 = alloca i32, align 4
  store ptr %0, ptr %4, align 8
  store ptr %1, ptr %5, align 8
  %7 = load ptr, ptr %4, align 8
  %8 = getelementptr inbounds %struct.hb_shape_plan_key_t, ptr %7, i32 0, i32 2
  %9 = load i32, ptr %8, align 8
  %10 = load ptr, ptr %5, align 8
  %11 = getelementptr inbounds %struct.hb_shape_plan_key_t, ptr %10, i32 0, i32 2
  %12 = load i32, ptr %11, align 8
  %13 = icmp ne i32 %9, %12
  br i1 %13, label %14, label %15

14:                                               ; preds = %2
  store i1 false, ptr %3, align 1
  br label %105

15:                                               ; preds = %2
  store i32 0, ptr %6, align 4
  br label %16

16:                                               ; preds = %101, %15
  %17 = load i32, ptr %6, align 4
  %18 = getelementptr inbounds %struct.hb_shape_plan_key_t, ptr %7, i32 0, i32 2
  %19 = load i32, ptr %18, align 8
  %20 = icmp ult i32 %17, %19
  br i1 %20, label %21, label %104

21:                                               ; preds = %16
  %22 = getelementptr inbounds %struct.hb_shape_plan_key_t, ptr %7, i32 0, i32 1
  %23 = load ptr, ptr %22, align 8
  %24 = load i32, ptr %6, align 4
  %25 = zext i32 %24 to i64
  %26 = getelementptr inbounds %struct.hb_feature_t, ptr %23, i64 %25
  %27 = getelementptr inbounds %struct.hb_feature_t, ptr %26, i32 0, i32 0
  %28 = load i32, ptr %27, align 4
  %29 = load ptr, ptr %5, align 8
  %30 = getelementptr inbounds %struct.hb_shape_plan_key_t, ptr %29, i32 0, i32 1
  %31 = load ptr, ptr %30, align 8
  %32 = load i32, ptr %6, align 4
  %33 = zext i32 %32 to i64
  %34 = getelementptr inbounds %struct.hb_feature_t, ptr %31, i64 %33
  %35 = getelementptr inbounds %struct.hb_feature_t, ptr %34, i32 0, i32 0
  %36 = load i32, ptr %35, align 4
  %37 = icmp ne i32 %28, %36
  br i1 %37, label %99, label %38

38:                                               ; preds = %21
  %39 = getelementptr inbounds %struct.hb_shape_plan_key_t, ptr %7, i32 0, i32 1
  %40 = load ptr, ptr %39, align 8
  %41 = load i32, ptr %6, align 4
  %42 = zext i32 %41 to i64
  %43 = getelementptr inbounds %struct.hb_feature_t, ptr %40, i64 %42
  %44 = getelementptr inbounds %struct.hb_feature_t, ptr %43, i32 0, i32 1
  %45 = load i32, ptr %44, align 4
  %46 = load ptr, ptr %5, align 8
  %47 = getelementptr inbounds %struct.hb_shape_plan_key_t, ptr %46, i32 0, i32 1
  %48 = load ptr, ptr %47, align 8
  %49 = load i32, ptr %6, align 4
  %50 = zext i32 %49 to i64
  %51 = getelementptr inbounds %struct.hb_feature_t, ptr %48, i64 %50
  %52 = getelementptr inbounds %struct.hb_feature_t, ptr %51, i32 0, i32 1
  %53 = load i32, ptr %52, align 4
  %54 = icmp ne i32 %45, %53
  br i1 %54, label %99, label %55

55:                                               ; preds = %38
  %56 = getelementptr inbounds %struct.hb_shape_plan_key_t, ptr %7, i32 0, i32 1
  %57 = load ptr, ptr %56, align 8
  %58 = load i32, ptr %6, align 4
  %59 = zext i32 %58 to i64
  %60 = getelementptr inbounds %struct.hb_feature_t, ptr %57, i64 %59
  %61 = getelementptr inbounds %struct.hb_feature_t, ptr %60, i32 0, i32 2
  %62 = load i32, ptr %61, align 4
  %63 = icmp eq i32 %62, 0
  br i1 %63, label %64, label %73

64:                                               ; preds = %55
  %65 = getelementptr inbounds %struct.hb_shape_plan_key_t, ptr %7, i32 0, i32 1
  %66 = load ptr, ptr %65, align 8
  %67 = load i32, ptr %6, align 4
  %68 = zext i32 %67 to i64
  %69 = getelementptr inbounds %struct.hb_feature_t, ptr %66, i64 %68
  %70 = getelementptr inbounds %struct.hb_feature_t, ptr %69, i32 0, i32 3
  %71 = load i32, ptr %70, align 4
  %72 = icmp eq i32 %71, -1
  br label %73

73:                                               ; preds = %64, %55
  %74 = phi i1 [ false, %55 ], [ %72, %64 ]
  %75 = zext i1 %74 to i32
  %76 = load ptr, ptr %5, align 8
  %77 = getelementptr inbounds %struct.hb_shape_plan_key_t, ptr %76, i32 0, i32 1
  %78 = load ptr, ptr %77, align 8
  %79 = load i32, ptr %6, align 4
  %80 = zext i32 %79 to i64
  %81 = getelementptr inbounds %struct.hb_feature_t, ptr %78, i64 %80
  %82 = getelementptr inbounds %struct.hb_feature_t, ptr %81, i32 0, i32 2
  %83 = load i32, ptr %82, align 4
  %84 = icmp eq i32 %83, 0
  br i1 %84, label %85, label %95

85:                                               ; preds = %73
  %86 = load ptr, ptr %5, align 8
  %87 = getelementptr inbounds %struct.hb_shape_plan_key_t, ptr %86, i32 0, i32 1
  %88 = load ptr, ptr %87, align 8
  %89 = load i32, ptr %6, align 4
  %90 = zext i32 %89 to i64
  %91 = getelementptr inbounds %struct.hb_feature_t, ptr %88, i64 %90
  %92 = getelementptr inbounds %struct.hb_feature_t, ptr %91, i32 0, i32 3
  %93 = load i32, ptr %92, align 4
  %94 = icmp eq i32 %93, -1
  br label %95

95:                                               ; preds = %85, %73
  %96 = phi i1 [ false, %73 ], [ %94, %85 ]
  %97 = zext i1 %96 to i32
  %98 = icmp ne i32 %75, %97
  br i1 %98, label %99, label %100

99:                                               ; preds = %95, %38, %21
  store i1 false, ptr %3, align 1
  br label %105

100:                                              ; preds = %95
  br label %101

101:                                              ; preds = %100
  %102 = load i32, ptr %6, align 4
  %103 = add i32 %102, 1
  store i32 %103, ptr %6, align 4
  br label %16, !llvm.loop !11

104:                                              ; preds = %16
  store i1 true, ptr %3, align 1
  br label %105

105:                                              ; preds = %104, %99, %14
  %106 = load i1, ptr %3, align 1
  ret i1 %106
}

; Function Attrs: mustprogress uwtable
define hidden noundef zeroext i1 @_ZN19hb_shape_plan_key_t5equalEPKS_(ptr noundef nonnull align 8 dereferenceable(72) %0, ptr noundef %1) #0 align 2 {
  %3 = alloca ptr, align 8
  %4 = alloca ptr, align 8
  store ptr %0, ptr %3, align 8
  store ptr %1, ptr %4, align 8
  %5 = load ptr, ptr %3, align 8
  %6 = getelementptr inbounds %struct.hb_shape_plan_key_t, ptr %5, i32 0, i32 0
  %7 = load ptr, ptr %4, align 8
  %8 = getelementptr inbounds %struct.hb_shape_plan_key_t, ptr %7, i32 0, i32 0
  %9 = call i32 @hb_segment_properties_equal(ptr noundef %6, ptr noundef %8)
  %10 = icmp ne i32 %9, 0
  br i1 %10, label %11, label %26

11:                                               ; preds = %2
  %12 = load ptr, ptr %4, align 8
  %13 = call noundef zeroext i1 @_ZN19hb_shape_plan_key_t19user_features_matchEPKS_(ptr noundef nonnull align 8 dereferenceable(72) %5, ptr noundef %12)
  br i1 %13, label %14, label %26

14:                                               ; preds = %11
  %15 = getelementptr inbounds %struct.hb_shape_plan_key_t, ptr %5, i32 0, i32 3
  %16 = load ptr, ptr %4, align 8
  %17 = getelementptr inbounds %struct.hb_shape_plan_key_t, ptr %16, i32 0, i32 3
  %18 = call noundef zeroext i1 @_ZN22hb_ot_shape_plan_key_t5equalEPKS_(ptr noundef nonnull align 4 dereferenceable(8) %15, ptr noundef %17)
  br i1 %18, label %19, label %26

19:                                               ; preds = %14
  %20 = getelementptr inbounds %struct.hb_shape_plan_key_t, ptr %5, i32 0, i32 4
  %21 = load ptr, ptr %20, align 8
  %22 = load ptr, ptr %4, align 8
  %23 = getelementptr inbounds %struct.hb_shape_plan_key_t, ptr %22, i32 0, i32 4
  %24 = load ptr, ptr %23, align 8
  %25 = icmp eq ptr %21, %24
  br label %26

26:                                               ; preds = %19, %14, %11, %2
  %27 = phi i1 [ false, %14 ], [ false, %11 ], [ false, %2 ], [ %25, %19 ]
  ret i1 %27
}