; Function Attrs: mustprogress uwtable
define hidden noundef zeroext i1 @_ZN19hb_shape_plan_key_t5equalEPKS_(ptr noundef nonnull align 8 dereferenceable(72) %0, ptr noundef %1) local_unnamed_addr #0 align 2 {
  %3 = tail call i32 @hb_segment_properties_equal(ptr noundef nonnull %0, ptr noundef %1)
  %.not = icmp eq i32 %3, 0
  br i1 %.not, label %_ZN19hb_shape_plan_key_t19user_features_matchEPKS_.exit.thread, label %4

4:                                                ; preds = %2
  %5 = getelementptr inbounds i8, ptr %0, i64 40
  %6 = load i32, ptr %5, align 8
  %7 = getelementptr inbounds i8, ptr %1, i64 40
  %8 = load i32, ptr %7, align 8
  %.not.i = icmp eq i32 %6, %8
  br i1 %.not.i, label %.preheader.i, label %_ZN19hb_shape_plan_key_t19user_features_matchEPKS_.exit.thread

.preheader.i:                                     ; preds = %4
  %.not29.i = icmp eq i32 %6, 0
  br i1 %.not29.i, label %_ZN19hb_shape_plan_key_t19user_features_matchEPKS_.exit, label %.lr.ph.i

.lr.ph.i:                                         ; preds = %.preheader.i
  %9 = getelementptr inbounds i8, ptr %0, i64 32
  %10 = load ptr, ptr %9, align 8
  %11 = getelementptr inbounds i8, ptr %1, i64 32
  %12 = load ptr, ptr %11, align 8
  %wide.trip.count.i = zext i32 %6 to i64
  br label %13

13:                                               ; preds = %._crit_edge.thread.i, %.lr.ph.i
  %indvars.iv.i = phi i64 [ 0, %.lr.ph.i ], [ %indvars.iv.next.i, %._crit_edge.thread.i ]
  %14 = getelementptr inbounds %struct.hb_feature_t, ptr %10, i64 %indvars.iv.i
  %15 = load i32, ptr %14, align 4
  %16 = getelementptr inbounds %struct.hb_feature_t, ptr %12, i64 %indvars.iv.i
  %17 = load i32, ptr %16, align 4
  %.not17.i = icmp eq i32 %15, %17
  br i1 %.not17.i, label %18, label %_ZN19hb_shape_plan_key_t19user_features_matchEPKS_.exit.thread

18:                                               ; preds = %13
  %19 = getelementptr inbounds i8, ptr %14, i64 4
  %20 = load i32, ptr %19, align 4
  %21 = getelementptr inbounds i8, ptr %16, i64 4
  %22 = load i32, ptr %21, align 4
  %.not18.i = icmp eq i32 %20, %22
  br i1 %.not18.i, label %23, label %_ZN19hb_shape_plan_key_t19user_features_matchEPKS_.exit.thread

23:                                               ; preds = %18
  %24 = getelementptr inbounds i8, ptr %14, i64 8
  %25 = load i32, ptr %24, align 4
  %26 = icmp eq i32 %25, 0
  br i1 %26, label %27, label %.thread.i

27:                                               ; preds = %23
  %28 = getelementptr inbounds i8, ptr %14, i64 12
  %29 = load i32, ptr %28, align 4
  %30 = icmp eq i32 %29, -1
  %31 = getelementptr inbounds i8, ptr %16, i64 8
  %32 = load i32, ptr %31, align 4
  %33 = icmp eq i32 %32, 0
  br i1 %33, label %40, label %._crit_edge.i

.thread.i:                                        ; preds = %23
  %34 = getelementptr inbounds i8, ptr %16, i64 8
  %35 = load i32, ptr %34, align 4
  %36 = icmp eq i32 %35, 0
  br i1 %36, label %.thread._crit_edge.i, label %._crit_edge.thread.i

.thread._crit_edge.i:                             ; preds = %.thread.i
  %37 = getelementptr inbounds i8, ptr %16, i64 12
  %38 = load i32, ptr %37, align 4
  %39 = icmp eq i32 %38, -1
  br i1 %39, label %_ZN19hb_shape_plan_key_t19user_features_matchEPKS_.exit.thread, label %._crit_edge.thread.i

._crit_edge.i:                                    ; preds = %27
  br i1 %30, label %_ZN19hb_shape_plan_key_t19user_features_matchEPKS_.exit.thread, label %._crit_edge.thread.i

40:                                               ; preds = %27
  %41 = getelementptr inbounds i8, ptr %16, i64 12
  %42 = load i32, ptr %41, align 4
  %43 = icmp eq i32 %42, -1
  %44 = xor i1 %30, %43
  br i1 %44, label %_ZN19hb_shape_plan_key_t19user_features_matchEPKS_.exit.thread, label %._crit_edge.thread.i

._crit_edge.thread.i:                             ; preds = %40, %._crit_edge.i, %.thread._crit_edge.i, %.thread.i
  %indvars.iv.next.i = add nuw nsw i64 %indvars.iv.i, 1
  %exitcond.not.i = icmp eq i64 %indvars.iv.next.i, %wide.trip.count.i
  br i1 %exitcond.not.i, label %_ZN19hb_shape_plan_key_t19user_features_matchEPKS_.exit, label %13, !llvm.loop !14

_ZN19hb_shape_plan_key_t19user_features_matchEPKS_.exit: ; preds = %._crit_edge.thread.i, %.preheader.i
  %45 = getelementptr inbounds i8, ptr %0, i64 44
  %46 = getelementptr inbounds i8, ptr %1, i64 44
  %bcmp.i = tail call i32 @bcmp(ptr noundef nonnull dereferenceable(8) %45, ptr noundef nonnull dereferenceable(8) %46, i64 8)
  %47 = icmp eq i32 %bcmp.i, 0
  br i1 %47, label %48, label %_ZN19hb_shape_plan_key_t19user_features_matchEPKS_.exit.thread

48:                                               ; preds = %_ZN19hb_shape_plan_key_t19user_features_matchEPKS_.exit
  %49 = getelementptr inbounds i8, ptr %0, i64 56
  %50 = load ptr, ptr %49, align 8
  %51 = getelementptr inbounds i8, ptr %1, i64 56
  %52 = load ptr, ptr %51, align 8
  %53 = icmp eq ptr %50, %52
  br label %_ZN19hb_shape_plan_key_t19user_features_matchEPKS_.exit.thread

_ZN19hb_shape_plan_key_t19user_features_matchEPKS_.exit.thread: ; preds = %.thread._crit_edge.i, %._crit_edge.i, %13, %18, %40, %4, %48, %_ZN19hb_shape_plan_key_t19user_features_matchEPKS_.exit, %2
  %54 = phi i1 [ false, %_ZN19hb_shape_plan_key_t19user_features_matchEPKS_.exit ], [ false, %2 ], [ %53, %48 ], [ false, %4 ], [ false, %40 ], [ false, %18 ], [ false, %13 ], [ false, %._crit_edge.i ], [ false, %.thread._crit_edge.i ]
  ret i1 %54
}